target datalayout = "e-m:e-p270:32:32-p271:32:32-p272:64:64-i64:64-i128:128-f80:128-n8:16:32:64-S128"
target triple = "x86_64-pc-linux-gnu"

; Function Attrs: nounwind uwtable
define dso_local void @Curl_xfer_setup1(ptr noundef %0, i32 noundef %1, i64 noundef %2, i1 noundef zeroext %3) #0 {
  %5 = alloca ptr, align 8
  %6 = alloca i32, align 4
  %7 = alloca i64, align 8
  %8 = alloca i8, align 1
  %9 = alloca i32, align 4
  %10 = alloca i32, align 4
  store ptr %0, ptr %5, align 8, !tbaa !4
  store i32 %1, ptr %6, align 4, !tbaa !104
  store i64 %2, ptr %7, align 8, !tbaa !11
  %11 = zext i1 %3 to i8
  store i8 %11, ptr %8, align 1, !tbaa !118
  call void @llvm.lifetime.start.p0(i64 4, ptr %9) #4
  %12 = load i32, ptr %6, align 4, !tbaa !104
  %13 = and i32 %12, 1
  %14 = icmp ne i32 %13, 0
  %15 = select i1 %14, i32 0, i32 -1
  store i32 %15, ptr %9, align 4, !tbaa !104
  call void @llvm.lifetime.start.p0(i64 4, ptr %10) #4
  %16 = load i32, ptr %6, align 4, !tbaa !104
  %17 = and i32 %16, 2
  %18 = icmp ne i32 %17, 0
  %19 = select i1 %18, i32 0, i32 -1
  store i32 %19, ptr %10, align 4, !tbaa !104
  br label %20

20:                                               ; preds = %4
  br label %21

21:                                               ; preds = %20
  br label %22

22:                                               ; preds = %21
  %23 = load ptr, ptr %5, align 8, !tbaa !4
  %24 = load i32, ptr %9, align 4, !tbaa !104
  %25 = load i64, ptr %7, align 8, !tbaa !11
  %26 = load i8, ptr %8, align 1, !tbaa !118, !range !120, !noundef !121
  %27 = trunc i8 %26 to i1
  %28 = load i32, ptr %10, align 4, !tbaa !104
  call void @xfer_setup(ptr noundef %23, i32 noundef %24, i64 noundef %25, i1 noundef zeroext %27, i32 noundef %28, i1 noundef zeroext false, i1 noundef zeroext false)
  call void @llvm.lifetime.end.p0(i64 4, ptr %10) #4
  call void @llvm.lifetime.end.p0(i64 4, ptr %9) #4
  ret void
}